target datalayout = "e-m:e-p270:32:32-p271:32:32-p272:64:64-i64:64-i128:128-f80:128-n8:16:32:64-S128"
target triple = "x86_64-pc-linux-gnu"

%struct._lv_font_manager_recycle_t = type { %struct.lv_ll_t, i32 }
%struct.lv_ll_t = type { i32, ptr, ptr }

; Function Attrs: nounwind uwtable
define ptr @lv_font_manager_recycle_create(i32 noundef %0) #0 {
  %2 = alloca ptr, align 8
  %3 = alloca i32, align 4
  %4 = alloca ptr, align 8
  %5 = alloca i32, align 4
  store i32 %0, ptr %3, align 4, !tbaa !3
  call void @llvm.lifetime.start.p0(i64 8, ptr %4) #5
  %6 = call ptr @lv_malloc_zeroed(i64 noundef 32)
  store ptr %6, ptr %4, align 8, !tbaa !7
  br label %7

7:                                                ; preds = %1
  %8 = load ptr, ptr %4, align 8, !tbaa !7
  %9 = icmp ne ptr %8, null
  br i1 %9, label %16, label %10

10:                                               ; preds = %7
  br label %11

11:                                               ; preds = %10
  br label %12

12:                                               ; preds = %11
  br label %13

13:                                               ; preds = %12
  br label %14

14:                                               ; preds = %15, %13
  br label %15

15:                                               ; preds = %14
  br label %14

16:                                               ; preds = %7
  br label %17

17:                                               ; preds = %16
  br label %18

18:                                               ; preds = %17
  %19 = load ptr, ptr %4, align 8, !tbaa !7
  %20 = icmp ne ptr %19, null
  br i1 %20, label %25, label %21

21:                                               ; preds = %18
  br label %22

22:                                               ; preds = %21
  br label %23

23:                                               ; preds = %22
  br label %24

24:                                               ; preds = %23
  store ptr null, ptr %2, align 8
  store i32 1, ptr %5, align 4
  br label %35

25:                                               ; preds = %18
  %26 = load ptr, ptr %4, align 8, !tbaa !7
  %27 = getelementptr inbounds nuw %struct._lv_font_manager_recycle_t, ptr %26, i32 0, i32 0
  call void @lv_ll_init(ptr noundef %27, i32 noundef 64)
  %28 = load i32, ptr %3, align 4, !tbaa !3
  %29 = load ptr, ptr %4, align 8, !tbaa !7
  %30 = getelementptr inbounds nuw %struct._lv_font_manager_recycle_t, ptr %29, i32 0, i32 1
  store i32 %28, ptr %30, align 8, !tbaa !9
  br label %31

31:                                               ; preds = %25
  br label %32

32:                                               ; preds = %31
  br label %33

33:                                               ; preds = %32
  %34 = load ptr, ptr %4, align 8, !tbaa !7
  store ptr %34, ptr %2, align 8
  store i32 1, ptr %5, align 4
  br label %35

35:                                               ; preds = %33, %24
  call void @llvm.lifetime.end.p0(i64 8, ptr %4) #5
  %36 = load ptr, ptr %2, align 8
  ret ptr %36
}