; Function Attrs: nounwind uwtable
define nonnull ptr @lv_font_manager_recycle_create(i32 noundef %0) local_unnamed_addr #0 {
  %2 = tail call ptr @lv_malloc_zeroed(i64 noundef 32) #3
  %.not = icmp eq ptr %2, null
  br i1 %.not, label %.preheader, label %3

.preheader:                                       ; preds = %1, %.preheader
  br label %.preheader

3:                                                ; preds = %1
  tail call void @lv_ll_init(ptr noundef nonnull %2, i32 noundef 64) #3
  %4 = getelementptr inbounds nuw i8, ptr %2, i64 24
  store i32 %0, ptr %4, align 8, !tbaa !3
  ret ptr %2
}